; Function Attrs: mustprogress uwtable
define dso_local noundef range(i32 0, 2) i32 @stbi_info_from_memory(ptr noundef %0, i32 noundef %1, ptr noundef %2, ptr noundef %3, ptr noundef %4) local_unnamed_addr #5 {
  %6 = alloca %struct.stbi__context, align 8
  call void @llvm.lifetime.start.p0(i64 224, ptr nonnull %6) #40
  %7 = getelementptr inbounds nuw i8, ptr %6, i64 16
  store ptr null, ptr %7, align 8, !tbaa !21
  %8 = getelementptr inbounds nuw i8, ptr %6, i64 48
  store i32 0, ptr %8, align 8, !tbaa !17
  %9 = getelementptr inbounds nuw i8, ptr %6, i64 184
  store i32 0, ptr %9, align 8, !tbaa !18
  %10 = getelementptr inbounds nuw i8, ptr %6, i64 208
  store ptr %0, ptr %10, align 8, !tbaa !19
  %11 = getelementptr inbounds nuw i8, ptr %6, i64 192
  store ptr %0, ptr %11, align 8, !tbaa !20
  %12 = sext i32 %1 to i64
  %13 = getelementptr inbounds i8, ptr %0, i64 %12
  %14 = getelementptr inbounds nuw i8, ptr %6, i64 216
  store ptr %13, ptr %14, align 8, !tbaa !24
  %15 = getelementptr inbounds nuw i8, ptr %6, i64 200
  store ptr %13, ptr %15, align 8, !tbaa !23
  %16 = call fastcc noundef i32 @_ZL15stbi__info_mainP13stbi__contextPiS1_S1_(ptr noundef %6, ptr noundef %2, ptr noundef %3, ptr noundef %4)
  call void @llvm.lifetime.end.p0(i64 224, ptr nonnull %6) #40
  ret i32 %16
}